	.file	"pointer-functiontest3.c"
	.text
	.globl	get_max
	.type	get_max, @function
get_max:
.LFB0:
	.cfi_startproc
	pushq	%rbp
	.cfi_def_cfa_offset 16
	.cfi_offset 6, -16
	movq	%rsp, %rbp
	.cfi_def_cfa_register 6
	movl	%edi, -4(%rbp)
	movl	%esi, -8(%rbp)
	movl	-4(%rbp), %eax
	cmpl	%eax, -8(%rbp)
	cmovge	-8(%rbp), %eax
	popq	%rbp
	.cfi_def_cfa 7, 8
	ret
	.cfi_endproc
.LFE0:
	.size	get_max, .-get_max
	.globl	get_min
	.type	get_min, @function
get_min:
.LFB1:
	.cfi_startproc
	pushq	%rbp
	.cfi_def_cfa_offset 16
	.cfi_offset 6, -16
	movq	%rsp, %rbp
	.cfi_def_cfa_register 6
	movl	%edi, -4(%rbp)
	movl	%esi, -8(%rbp)
	movl	-8(%rbp), %eax
	cmpl	%eax, -4(%rbp)
	cmovle	-4(%rbp), %eax
	popq	%rbp
	.cfi_def_cfa 7, 8
	ret
	.cfi_endproc
.LFE1:
	.size	get_min, .-get_min
	.globl	compare
	.type	compare, @function
compare:
.LFB2:
	.cfi_startproc
	pushq	%rbp
	.cfi_def_cfa_offset 16
	.cfi_offset 6, -16
	movq	%rsp, %rbp
	.cfi_def_cfa_register 6
	subq	$32, %rsp
	movl	%edi, -20(%rbp)
	movl	%esi, -24(%rbp)
	movl	%edx, -28(%rbp)
	cmpl	$0, -28(%rbp)
	jne	.L6
	movq	$get_max, -8(%rbp)
	jmp	.L7
.L6:
	movq	$get_min, -8(%rbp)
.L7:
	movl	-24(%rbp), %ecx
	movl	-20(%rbp), %edx
	movq	-8(%rbp), %rax
	movl	%ecx, %esi
	movl	%edx, %edi
	call	*%rax
	movl	%eax, -12(%rbp)
	movl	-12(%rbp), %eax
	leave
	.cfi_def_cfa 7, 8
	ret
	.cfi_endproc
.LFE2:
	.size	compare, .-compare
	.section	.rodata
.LC0:
	.string	"The MAX is %d\n"
	.text
	.globl	main
	.type	main, @function
main:
.LFB3:
	.cfi_startproc
	pushq	%rbp
	.cfi_def_cfa_offset 16
	.cfi_offset 6, -16
	movq	%rsp, %rbp
	.cfi_def_cfa_register 6
	subq	$16, %rsp
	movl	$5, -12(%rbp)
	movl	$10, -8(%rbp)
	movl	-8(%rbp), %ecx
	movl	-12(%rbp), %eax
	movl	$0, %edx
	movl	%ecx, %esi
	movl	%eax, %edi
	call	compare
	movl	%eax, -4(%rbp)
	movl	-4(%rbp), %eax
	movl	%eax, %esi
	movl	$.LC0, %edi
	movl	$0, %eax
	call	printf
	movl	$0, %eax
	leave
	.cfi_def_cfa 7, 8
	ret
	.cfi_endproc
.LFE3:
	.size	main, .-main
	.ident	"GCC: (Ubuntu 5.4.0-6ubuntu1~16.04.4) 5.4.0 20160609"
	.section	.note.GNU-stack,"",@progbits
