	.file	"staticvariable.c"
	.section	.rodata
.LC0:
	.string	"a=%d,b=%d\n"
	.text
	.globl	function
	.type	function, @function
function:
.LFB0:
	.cfi_startproc
	pushq	%rbp
	.cfi_def_cfa_offset 16
	.cfi_offset 6, -16
	movq	%rsp, %rbp
	.cfi_def_cfa_register 6
	subq	$16, %rsp
	movl	$0, -4(%rbp)
	movl	a.2285(%rip), %eax
	addl	$1, %eax
	movl	%eax, a.2285(%rip)
	addl	$1, -4(%rbp)
	movl	a.2285(%rip), %eax
	movl	-4(%rbp), %edx
	movl	%eax, %esi
	movl	$.LC0, %edi
	movl	$0, %eax
	call	printf
	nop
	leave
	.cfi_def_cfa 7, 8
	ret
	.cfi_endproc
.LFE0:
	.size	function, .-function
	.globl	main
	.type	main, @function
main:
.LFB1:
	.cfi_startproc
	pushq	%rbp
	.cfi_def_cfa_offset 16
	.cfi_offset 6, -16
	movq	%rsp, %rbp
	.cfi_def_cfa_register 6
	movl	$0, %eax
	call	function
	movl	$0, %eax
	call	function
	movl	$0, %eax
	call	function
	movl	$0, %eax
	popq	%rbp
	.cfi_def_cfa 7, 8
	ret
	.cfi_endproc
.LFE1:
	.size	main, .-main
	.local	a.2285
	.comm	a.2285,4,4
	.ident	"GCC: (Ubuntu 5.4.0-6ubuntu1~16.04.4) 5.4.0 20160609"
	.section	.note.GNU-stack,"",@progbits
